; Function Attrs: nounwind uwtable
define void @Gia_ManBmcAddCone_rec(ptr noundef %0, ptr noundef %1) local_unnamed_addr #0 {
  %3 = load i64, ptr %1, align 4
  %4 = and i64 %3, 1073741824
  %.not = icmp eq i64 %4, 0
  br i1 %.not, label %5, label %98

5:                                                ; preds = %2
  %6 = or disjoint i64 %3, 1073741824
  store i64 %6, ptr %1, align 4
  %7 = load ptr, ptr %0, align 8, !tbaa !105
  %8 = getelementptr i8, ptr %7, i64 32
  %.val16 = load ptr, ptr %8, align 8, !tbaa !32
  %9 = ptrtoint ptr %1 to i64
  %10 = ptrtoint ptr %.val16 to i64
  %11 = sub i64 %9, %10
  %12 = sdiv exact i64 %11, 12
  %13 = trunc i64 %12 to i32
  %14 = and i64 %3, 2147483648
  %.not.i = icmp ne i64 %14, 0
  %15 = and i64 %3, 536870911
  %16 = icmp eq i64 %15, 536870911
  %narrow.i.not = or i1 %.not.i, %16
  br i1 %narrow.i.not, label %64, label %17

17:                                               ; preds = %5
  %18 = getelementptr inbounds nuw i8, ptr %0, i64 24
  %19 = load ptr, ptr %18, align 8, !tbaa !73
  %20 = getelementptr i8, ptr %19, i64 8
  %.val = load ptr, ptr %20, align 8, !tbaa !37
  %sext = shl i64 %12, 32
  %21 = ashr exact i64 %sext, 30
  %22 = getelementptr inbounds i8, ptr %.val, i64 %21
  %23 = load i32, ptr %22, align 4, !tbaa !38
  %24 = icmp eq i32 %23, 0
  br i1 %24, label %25, label %64

25:                                               ; preds = %17
  %26 = sub nsw i64 0, %15
  %27 = getelementptr inbounds %struct.Gia_Obj_t_, ptr %1, i64 %26
  tail call void @Gia_ManBmcAddCone_rec(ptr noundef nonnull %0, ptr noundef nonnull %27)
  %28 = load i64, ptr %1, align 4
  %29 = lshr i64 %28, 32
  %30 = and i64 %29, 536870911
  %31 = sub nsw i64 0, %30
  %32 = getelementptr inbounds %struct.Gia_Obj_t_, ptr %1, i64 %31
  tail call void @Gia_ManBmcAddCone_rec(ptr noundef nonnull %0, ptr noundef nonnull %32)
  %33 = getelementptr inbounds nuw i8, ptr %0, i64 48
  %34 = load ptr, ptr %33, align 8, !tbaa !79
  %35 = getelementptr inbounds nuw i8, ptr %34, i64 4
  %36 = load i32, ptr %35, align 4, !tbaa !28
  %37 = load i32, ptr %34, align 8, !tbaa !52
  %38 = icmp eq i32 %36, %37
  br i1 %38, label %39, label %.Vec_IntGrow.exit10_crit_edge.i

.Vec_IntGrow.exit10_crit_edge.i:                  ; preds = %25
  %.phi.trans.insert.i = getelementptr inbounds nuw i8, ptr %34, i64 8
  %.pre.i = load ptr, ptr %.phi.trans.insert.i, align 8, !tbaa !37
  br label %Vec_IntPush.exit

39:                                               ; preds = %25
  %40 = icmp slt i32 %36, 16
  br i1 %40, label %41, label %49

41:                                               ; preds = %39
  %42 = getelementptr inbounds nuw i8, ptr %34, i64 8
  %43 = load ptr, ptr %42, align 8, !tbaa !37
  %.not9.i.i = icmp eq ptr %43, null
  br i1 %.not9.i.i, label %46, label %44

44:                                               ; preds = %41
  %45 = tail call dereferenceable_or_null(64) ptr @realloc(ptr noundef nonnull %43, i64 noundef 64) #21
  br label %Vec_IntGrow.exit.i

46:                                               ; preds = %41
  %47 = tail call noalias dereferenceable_or_null(64) ptr @malloc(i64 noundef 64) #20
  br label %Vec_IntGrow.exit.i

Vec_IntGrow.exit.i:                               ; preds = %46, %44
  %48 = phi ptr [ %45, %44 ], [ %47, %46 ]
  store ptr %48, ptr %42, align 8, !tbaa !37
  store i32 16, ptr %34, align 8, !tbaa !52
  br label %Vec_IntPush.exit

49:                                               ; preds = %39
  %50 = shl nuw nsw i32 %36, 1
  %51 = getelementptr inbounds nuw i8, ptr %34, i64 8
  %52 = load ptr, ptr %51, align 8, !tbaa !37
  %.not9.i9.i = icmp eq ptr %52, null
  %53 = zext nneg i32 %50 to i64
  %54 = shl nuw nsw i64 %53, 2
  br i1 %.not9.i9.i, label %57, label %55

55:                                               ; preds = %49
  %56 = tail call ptr @realloc(ptr noundef nonnull %52, i64 noundef %54) #21
  br label %59

57:                                               ; preds = %49
  %58 = tail call noalias ptr @malloc(i64 noundef %54) #20
  br label %59

59:                                               ; preds = %57, %55
  %60 = phi ptr [ %56, %55 ], [ %58, %57 ]
  store ptr %60, ptr %51, align 8, !tbaa !37
  store i32 %50, ptr %34, align 8, !tbaa !52
  br label %Vec_IntPush.exit

Vec_IntPush.exit:                                 ; preds = %.Vec_IntGrow.exit10_crit_edge.i, %Vec_IntGrow.exit.i, %59
  %61 = phi ptr [ %.pre.i, %.Vec_IntGrow.exit10_crit_edge.i ], [ %60, %59 ], [ %48, %Vec_IntGrow.exit.i ]
  %62 = load i32, ptr %35, align 4, !tbaa !28
  %63 = add nsw i32 %62, 1
  store i32 %63, ptr %35, align 4, !tbaa !28
  br label %.sink.split

64:                                               ; preds = %17, %5
  %65 = getelementptr inbounds nuw i8, ptr %0, i64 32
  %66 = load ptr, ptr %65, align 8, !tbaa !77
  %67 = getelementptr inbounds nuw i8, ptr %66, i64 4
  %68 = load i32, ptr %67, align 4, !tbaa !28
  %69 = load i32, ptr %66, align 8, !tbaa !52
  %70 = icmp eq i32 %68, %69
  br i1 %70, label %71, label %.Vec_IntGrow.exit10_crit_edge.i17

.Vec_IntGrow.exit10_crit_edge.i17:                ; preds = %64
  %.phi.trans.insert.i18 = getelementptr inbounds nuw i8, ptr %66, i64 8
  %.pre.i19 = load ptr, ptr %.phi.trans.insert.i18, align 8, !tbaa !37
  br label %Vec_IntPush.exit23

71:                                               ; preds = %64
  %72 = icmp slt i32 %68, 16
  br i1 %72, label %73, label %81

73:                                               ; preds = %71
  %74 = getelementptr inbounds nuw i8, ptr %66, i64 8
  %75 = load ptr, ptr %74, align 8, !tbaa !37
  %.not9.i.i21 = icmp eq ptr %75, null
  br i1 %.not9.i.i21, label %78, label %76

76:                                               ; preds = %73
  %77 = tail call dereferenceable_or_null(64) ptr @realloc(ptr noundef nonnull %75, i64 noundef 64) #21
  br label %Vec_IntGrow.exit.i22

78:                                               ; preds = %73
  %79 = tail call noalias dereferenceable_or_null(64) ptr @malloc(i64 noundef 64) #20
  br label %Vec_IntGrow.exit.i22

Vec_IntGrow.exit.i22:                             ; preds = %78, %76
  %80 = phi ptr [ %77, %76 ], [ %79, %78 ]
  store ptr %80, ptr %74, align 8, !tbaa !37
  store i32 16, ptr %66, align 8, !tbaa !52
  br label %Vec_IntPush.exit23

81:                                               ; preds = %71
  %82 = shl nuw nsw i32 %68, 1
  %83 = getelementptr inbounds nuw i8, ptr %66, i64 8
  %84 = load ptr, ptr %83, align 8, !tbaa !37
  %.not9.i9.i20 = icmp eq ptr %84, null
  %85 = zext nneg i32 %82 to i64
  %86 = shl nuw nsw i64 %85, 2
  br i1 %.not9.i9.i20, label %89, label %87

87:                                               ; preds = %81
  %88 = tail call ptr @realloc(ptr noundef nonnull %84, i64 noundef %86) #21
  br label %91

89:                                               ; preds = %81
  %90 = tail call noalias ptr @malloc(i64 noundef %86) #20
  br label %91

91:                                               ; preds = %89, %87
  %92 = phi ptr [ %88, %87 ], [ %90, %89 ]
  store ptr %92, ptr %83, align 8, !tbaa !37
  store i32 %82, ptr %66, align 8, !tbaa !52
  br label %Vec_IntPush.exit23

Vec_IntPush.exit23:                               ; preds = %.Vec_IntGrow.exit10_crit_edge.i17, %Vec_IntGrow.exit.i22, %91
  %93 = phi ptr [ %.pre.i19, %.Vec_IntGrow.exit10_crit_edge.i17 ], [ %92, %91 ], [ %80, %Vec_IntGrow.exit.i22 ]
  %94 = load i32, ptr %67, align 4, !tbaa !28
  %95 = add nsw i32 %94, 1
  store i32 %95, ptr %67, align 4, !tbaa !28
  br label %.sink.split

.sink.split:                                      ; preds = %Vec_IntPush.exit23, %Vec_IntPush.exit
  %.sink = phi i32 [ %62, %Vec_IntPush.exit ], [ %94, %Vec_IntPush.exit23 ]
  %.sink25 = phi ptr [ %61, %Vec_IntPush.exit ], [ %93, %Vec_IntPush.exit23 ]
  %96 = sext i32 %.sink to i64
  %97 = getelementptr inbounds i32, ptr %.sink25, i64 %96
  store i32 %13, ptr %97, align 4, !tbaa !38
  br label %98

98:                                               ; preds = %.sink.split, %2
  ret void
}